target datalayout = "e-m:e-p270:32:32-p271:32:32-p272:64:64-i64:64-i128:128-f80:128-n8:16:32:64-S128"
target triple = "x86_64-pc-linux-gnu"

@.str.5 = private unnamed_addr constant [22 x i8] c"HDF5_USE_FILE_LOCKING\00", align 1
@.str.6 = private unnamed_addr constant [6 x i8] c"FALSE\00", align 1
@.str.7 = private unnamed_addr constant [2 x i8] c"0\00", align 1
@.str.8 = private unnamed_addr constant [12 x i8] c"BEST_EFFORT\00", align 1
@.str.9 = private unnamed_addr constant [5 x i8] c"TRUE\00", align 1
@.str.10 = private unnamed_addr constant [2 x i8] c"1\00", align 1

; Function Attrs: nounwind uwtable
define i32 @H5F__parse_file_lock_env_var(ptr noundef %0, ptr noundef %1) #0 {
  %3 = alloca ptr, align 8
  %4 = alloca ptr, align 8
  %5 = alloca ptr, align 8
  store ptr %0, ptr %3, align 8
  store ptr %1, ptr %4, align 8
  store ptr null, ptr %5, align 8
  %6 = call ptr @getenv(ptr noundef @.str.5) #10
  store ptr %6, ptr %5, align 8
  %7 = load ptr, ptr %5, align 8
  %8 = icmp ne ptr %7, null
  br i1 %8, label %9, label %20

9:                                                ; preds = %2
  %10 = load ptr, ptr %5, align 8
  %11 = call i32 @strcmp(ptr noundef %10, ptr noundef @.str.6) #11
  %12 = icmp ne i32 %11, 0
  br i1 %12, label %13, label %17

13:                                               ; preds = %9
  %14 = load ptr, ptr %5, align 8
  %15 = call i32 @strcmp(ptr noundef %14, ptr noundef @.str.7) #11
  %16 = icmp ne i32 %15, 0
  br i1 %16, label %20, label %17

17:                                               ; preds = %13, %9
  %18 = load ptr, ptr %3, align 8
  store i32 0, ptr %18, align 4
  %19 = load ptr, ptr %4, align 8
  store i32 -1, ptr %19, align 4
  br label %49

20:                                               ; preds = %13, %2
  %21 = load ptr, ptr %5, align 8
  %22 = icmp ne ptr %21, null
  br i1 %22, label %23, label %30

23:                                               ; preds = %20
  %24 = load ptr, ptr %5, align 8
  %25 = call i32 @strcmp(ptr noundef %24, ptr noundef @.str.8) #11
  %26 = icmp ne i32 %25, 0
  br i1 %26, label %30, label %27

27:                                               ; preds = %23
  %28 = load ptr, ptr %3, align 8
  store i32 1, ptr %28, align 4
  %29 = load ptr, ptr %4, align 8
  store i32 1, ptr %29, align 4
  br label %48

30:                                               ; preds = %23, %20
  %31 = load ptr, ptr %5, align 8
  %32 = icmp ne ptr %31, null
  br i1 %32, label %33, label %44

33:                                               ; preds = %30
  %34 = load ptr, ptr %5, align 8
  %35 = call i32 @strcmp(ptr noundef %34, ptr noundef @.str.9) #11
  %36 = icmp ne i32 %35, 0
  br i1 %36, label %37, label %41

37:                                               ; preds = %33
  %38 = load ptr, ptr %5, align 8
  %39 = call i32 @strcmp(ptr noundef %38, ptr noundef @.str.10) #11
  %40 = icmp ne i32 %39, 0
  br i1 %40, label %44, label %41

41:                                               ; preds = %37, %33
  %42 = load ptr, ptr %3, align 8
  store i32 1, ptr %42, align 4
  %43 = load ptr, ptr %4, align 8
  store i32 0, ptr %43, align 4
  br label %47

44:                                               ; preds = %37, %30
  %45 = load ptr, ptr %3, align 8
  store i32 -1, ptr %45, align 4
  %46 = load ptr, ptr %4, align 8
  store i32 -1, ptr %46, align 4
  br label %47

47:                                               ; preds = %44, %41
  br label %48

48:                                               ; preds = %47, %27
  br label %49

49:                                               ; preds = %48, %17
  ret i32 0
}