; Function Attrs: nofree nounwind memory(read, argmem: readwrite) uwtable
define noundef i32 @H5F__parse_file_lock_env_var(ptr nocapture noundef writeonly %0, ptr nocapture noundef writeonly %1) local_unnamed_addr #2 {
  %3 = tail call ptr @getenv(ptr noundef nonnull @.str.5) #22
  %.not = icmp eq ptr %3, null
  br i1 %.not, label %.critedge21, label %4

4:                                                ; preds = %2
  %5 = tail call i32 @strcmp(ptr noundef nonnull dereferenceable(1) %3, ptr noundef nonnull dereferenceable(6) @.str.6) #23
  %.not16 = icmp eq i32 %5, 0
  br i1 %.not16, label %15, label %sub_0

sub_0:                                            ; preds = %4
  %6 = load i8, ptr %3, align 1
  %.not26 = icmp eq i8 %6, 48
  br i1 %.not26, label %.tail, label %.tail.thread

.tail:                                            ; preds = %sub_0
  %7 = getelementptr inbounds i8, ptr %3, i64 1
  %8 = load i8, ptr %7, align 1
  %9 = icmp eq i8 %8, 0
  br i1 %9, label %15, label %.tail.thread

.tail.thread:                                     ; preds = %sub_0, %.tail
  %10 = tail call i32 @strcmp(ptr noundef nonnull dereferenceable(1) %3, ptr noundef nonnull dereferenceable(12) @.str.8) #23
  %.not18 = icmp eq i32 %10, 0
  br i1 %.not18, label %15, label %.critedge

.critedge:                                        ; preds = %.tail.thread
  %11 = tail call i32 @strcmp(ptr noundef nonnull dereferenceable(1) %3, ptr noundef nonnull dereferenceable(5) @.str.9) #23
  %.not19 = icmp eq i32 %11, 0
  br i1 %.not19, label %15, label %sub_023

sub_023:                                          ; preds = %.critedge
  %.not27 = icmp eq i8 %6, 49
  br i1 %.not27, label %.tail22, label %.critedge21

.tail22:                                          ; preds = %sub_023
  %12 = getelementptr inbounds i8, ptr %3, i64 1
  %13 = load i8, ptr %12, align 1
  %14 = icmp eq i8 %13, 0
  br i1 %14, label %15, label %.critedge21

.critedge21:                                      ; preds = %sub_023, %2, %.tail22
  br label %15

15:                                               ; preds = %.critedge, %.tail22, %.tail.thread, %4, %.tail, %.critedge21
  %.sink30 = phi i32 [ -1, %.critedge21 ], [ 0, %.tail ], [ 0, %4 ], [ 1, %.tail.thread ], [ 1, %.tail22 ], [ 1, %.critedge ]
  %.sink = phi i32 [ -1, %.critedge21 ], [ -1, %.tail ], [ -1, %4 ], [ 1, %.tail.thread ], [ 0, %.tail22 ], [ 0, %.critedge ]
  store i32 %.sink30, ptr %0, align 4
  store i32 %.sink, ptr %1, align 4
  ret i32 0
}